target datalayout = "e-m:e-p270:32:32-p271:32:32-p272:64:64-i64:64-i128:128-f80:128-n8:16:32:64-S128"
target triple = "x86_64-pc-linux-gnu"

%struct.ChunkInfo = type { i32, i32, i32 }
%struct.WebPMux = type { ptr, ptr, ptr, ptr, ptr, ptr, ptr, i32, i32 }
%struct.WebPData = type { ptr, i64 }
%struct.WebPChunk = type { i32, i32, %struct.WebPData, ptr }

@kChunks = external constant [11 x %struct.ChunkInfo], align 16

; Function Attrs: nounwind uwtable
define internal i32 @DeleteChunks(ptr noundef %0, i32 noundef %1) #0 {
  %3 = alloca ptr, align 8
  %4 = alloca i32, align 4
  %5 = alloca i32, align 4
  %6 = alloca ptr, align 8
  store ptr %0, ptr %3, align 8, !tbaa !52
  store i32 %1, ptr %4, align 4, !tbaa !3
  call void @llvm.lifetime.start.p0(i64 4, ptr %5) #7
  store i32 0, ptr %5, align 4, !tbaa !3
  br label %7

7:                                                ; preds = %26, %2
  %8 = load ptr, ptr %3, align 8, !tbaa !52
  %9 = load ptr, ptr %8, align 8, !tbaa !71
  %10 = icmp ne ptr %9, null
  br i1 %10, label %11, label %27

11:                                               ; preds = %7
  call void @llvm.lifetime.start.p0(i64 8, ptr %6) #7
  %12 = load ptr, ptr %3, align 8, !tbaa !52
  %13 = load ptr, ptr %12, align 8, !tbaa !71
  store ptr %13, ptr %6, align 8, !tbaa !71
  %14 = load ptr, ptr %6, align 8, !tbaa !71
  %15 = getelementptr inbounds nuw %struct.WebPChunk, ptr %14, i32 0, i32 0
  %16 = load i32, ptr %15, align 8, !tbaa !39
  %17 = load i32, ptr %4, align 4, !tbaa !3
  %18 = icmp eq i32 %16, %17
  br i1 %18, label %19, label %23

19:                                               ; preds = %11
  %20 = load ptr, ptr %6, align 8, !tbaa !71
  %21 = call ptr @ChunkDelete(ptr noundef %20)
  %22 = load ptr, ptr %3, align 8, !tbaa !52
  store ptr %21, ptr %22, align 8, !tbaa !71
  store i32 1, ptr %5, align 4, !tbaa !3
  br label %26

23:                                               ; preds = %11
  %24 = load ptr, ptr %6, align 8, !tbaa !71
  %25 = getelementptr inbounds nuw %struct.WebPChunk, ptr %24, i32 0, i32 3
  store ptr %25, ptr %3, align 8, !tbaa !52
  br label %26

26:                                               ; preds = %23, %19
  call void @llvm.lifetime.end.p0(i64 8, ptr %6) #7
  br label %7, !llvm.loop !72

27:                                               ; preds = %7
  %28 = load i32, ptr %5, align 4, !tbaa !3
  call void @llvm.lifetime.end.p0(i64 4, ptr %5) #7
  ret i32 %28
}

; Function Attrs: inlinehint nounwind uwtable
define internal i32 @IsWPI(i32 noundef %0) #4 {
  %2 = alloca i32, align 4
  %3 = alloca i32, align 4
  store i32 %0, ptr %3, align 4, !tbaa !3
  %4 = load i32, ptr %3, align 4, !tbaa !3
  switch i32 %4, label %6 [
    i32 3, label %5
    i32 5, label %5
    i32 6, label %5
  ]

5:                                                ; preds = %1, %1, %1
  store i32 1, ptr %2, align 4
  br label %7

6:                                                ; preds = %1
  store i32 0, ptr %2, align 4
  br label %7

7:                                                ; preds = %6, %5
  %8 = load i32, ptr %2, align 4
  ret i32 %8
}

; Function Attrs: nounwind uwtable
define internal i32 @MuxDeleteAllNamedData(ptr noundef %0, i32 noundef %1) #0 {
  %3 = alloca i32, align 4
  %4 = alloca ptr, align 8
  %5 = alloca i32, align 4
  %6 = alloca i32, align 4
  %7 = alloca i32, align 4
  store ptr %0, ptr %4, align 8, !tbaa !7
  store i32 %1, ptr %5, align 4, !tbaa !3
  call void @llvm.lifetime.start.p0(i64 4, ptr %6) #7
  %8 = load i32, ptr %5, align 4, !tbaa !3
  %9 = call i32 @ChunkGetIdFromTag(i32 noundef %8)
  store i32 %9, ptr %6, align 4, !tbaa !3
  %10 = load i32, ptr %6, align 4, !tbaa !3
  %11 = call i32 @IsWPI(i32 noundef %10)
  %12 = icmp ne i32 %11, 0
  br i1 %12, label %13, label %14

13:                                               ; preds = %2
  store i32 -1, ptr %3, align 4
  store i32 1, ptr %7, align 4
  br label %20

14:                                               ; preds = %2
  %15 = load ptr, ptr %4, align 8, !tbaa !7
  %16 = load i32, ptr %6, align 4, !tbaa !3
  %17 = call ptr @MuxGetChunkListFromId(ptr noundef %15, i32 noundef %16)
  %18 = load i32, ptr %5, align 4, !tbaa !3
  %19 = call i32 @DeleteChunks(ptr noundef %17, i32 noundef %18)
  store i32 %19, ptr %3, align 4
  store i32 1, ptr %7, align 4
  br label %20

20:                                               ; preds = %14, %13
  call void @llvm.lifetime.end.p0(i64 4, ptr %6) #7
  %21 = load i32, ptr %3, align 4
  ret i32 %21
}

; Function Attrs: nounwind uwtable
define i32 @WebPMuxSetCanvasSize(ptr noundef %0, i32 noundef %1, i32 noundef %2) #0 {
  %4 = alloca i32, align 4
  %5 = alloca ptr, align 8
  %6 = alloca i32, align 4
  %7 = alloca i32, align 4
  %8 = alloca i32, align 4
  %9 = alloca i32, align 4
  store ptr %0, ptr %5, align 8, !tbaa !7
  store i32 %1, ptr %6, align 4, !tbaa !3
  store i32 %2, ptr %7, align 4, !tbaa !3
  call void @llvm.lifetime.start.p0(i64 4, ptr %8) #7
  %10 = load ptr, ptr %5, align 8, !tbaa !7
  %11 = icmp eq ptr %10, null
  br i1 %11, label %12, label %13

12:                                               ; preds = %3
  store i32 -1, ptr %4, align 4
  store i32 1, ptr %9, align 4
  br label %63

13:                                               ; preds = %3
  %14 = load i32, ptr %6, align 4, !tbaa !3
  %15 = icmp slt i32 %14, 0
  br i1 %15, label %25, label %16

16:                                               ; preds = %13
  %17 = load i32, ptr %7, align 4, !tbaa !3
  %18 = icmp slt i32 %17, 0
  br i1 %18, label %25, label %19

19:                                               ; preds = %16
  %20 = load i32, ptr %6, align 4, !tbaa !3
  %21 = icmp sgt i32 %20, 16777216
  br i1 %21, label %25, label %22

22:                                               ; preds = %19
  %23 = load i32, ptr %7, align 4, !tbaa !3
  %24 = icmp sgt i32 %23, 16777216
  br i1 %24, label %25, label %26

25:                                               ; preds = %22, %19, %16, %13
  store i32 -1, ptr %4, align 4
  store i32 1, ptr %9, align 4
  br label %63

26:                                               ; preds = %22
  %27 = load i32, ptr %6, align 4, !tbaa !3
  %28 = sext i32 %27 to i64
  %29 = load i32, ptr %7, align 4, !tbaa !3
  %30 = sext i32 %29 to i64
  %31 = mul i64 %28, %30
  %32 = icmp uge i64 %31, 4294967296
  br i1 %32, label %33, label %34

33:                                               ; preds = %26
  store i32 -1, ptr %4, align 4
  store i32 1, ptr %9, align 4
  br label %63

34:                                               ; preds = %26
  %35 = load i32, ptr %6, align 4, !tbaa !3
  %36 = load i32, ptr %7, align 4, !tbaa !3
  %37 = mul nsw i32 %35, %36
  %38 = icmp eq i32 %37, 0
  br i1 %38, label %39, label %45

39:                                               ; preds = %34
  %40 = load i32, ptr %6, align 4, !tbaa !3
  %41 = load i32, ptr %7, align 4, !tbaa !3
  %42 = or i32 %40, %41
  %43 = icmp ne i32 %42, 0
  br i1 %43, label %44, label %45

44:                                               ; preds = %39
  store i32 -1, ptr %4, align 4
  store i32 1, ptr %9, align 4
  br label %63

45:                                               ; preds = %39, %34
  %46 = load ptr, ptr %5, align 8, !tbaa !7
  %47 = load i32, ptr @kChunks, align 16, !tbaa !29
  %48 = call i32 @MuxDeleteAllNamedData(ptr noundef %46, i32 noundef %47)
  store i32 %48, ptr %8, align 4, !tbaa !3
  %49 = load i32, ptr %8, align 4, !tbaa !3
  %50 = icmp ne i32 %49, 1
  br i1 %50, label %51, label %56

51:                                               ; preds = %45
  %52 = load i32, ptr %8, align 4, !tbaa !3
  %53 = icmp ne i32 %52, 0
  br i1 %53, label %54, label %56

54:                                               ; preds = %51
  %55 = load i32, ptr %8, align 4, !tbaa !3
  store i32 %55, ptr %4, align 4
  store i32 1, ptr %9, align 4
  br label %63

56:                                               ; preds = %51, %45
  %57 = load i32, ptr %6, align 4, !tbaa !3
  %58 = load ptr, ptr %5, align 8, !tbaa !7
  %59 = getelementptr inbounds nuw %struct.WebPMux, ptr %58, i32 0, i32 7
  store i32 %57, ptr %59, align 8, !tbaa !10
  %60 = load i32, ptr %7, align 4, !tbaa !3
  %61 = load ptr, ptr %5, align 8, !tbaa !7
  %62 = getelementptr inbounds nuw %struct.WebPMux, ptr %61, i32 0, i32 8
  store i32 %60, ptr %62, align 4, !tbaa !14
  store i32 1, ptr %4, align 4
  store i32 1, ptr %9, align 4
  br label %63

63:                                               ; preds = %56, %54, %44, %33, %25, %12
  call void @llvm.lifetime.end.p0(i64 4, ptr %8) #7
  %64 = load i32, ptr %4, align 4
  ret i32 %64
}