; Function Attrs: nounwind uwtable
define range(i32 -1, 2) i32 @WebPMuxSetCanvasSize(ptr noundef %0, i32 noundef %1, i32 noundef %2) local_unnamed_addr #0 {
  %4 = icmp eq ptr %0, null
  br i1 %4, label %MuxDeleteAllNamedData.exit.thread, label %5

5:                                                ; preds = %3
  %6 = or i32 %2, %1
  %or.cond = icmp slt i32 %6, 0
  %7 = icmp sgt i32 %1, 16777216
  %or.cond3 = or i1 %7, %or.cond
  %8 = icmp sgt i32 %2, 16777216
  %or.cond5 = or i1 %8, %or.cond3
  br i1 %or.cond5, label %MuxDeleteAllNamedData.exit.thread, label %9

9:                                                ; preds = %5
  %umul = tail call { i32, i1 } @llvm.umul.with.overflow.i32(i32 %1, i32 %2)
  %10 = extractvalue { i32, i1 } %umul, 1
  br i1 %10, label %MuxDeleteAllNamedData.exit.thread, label %11

11:                                               ; preds = %9
  %12 = mul nsw i32 %2, %1
  %13 = icmp ne i32 %12, 0
  %.not = icmp eq i32 %6, 0
  %or.cond30 = or i1 %13, %.not
  br i1 %or.cond30, label %14, label %MuxDeleteAllNamedData.exit.thread

14:                                               ; preds = %11
  %15 = load i32, ptr @kChunks, align 16, !tbaa !29
  %16 = tail call i32 @ChunkGetIdFromTag(i32 noundef %15) #7
  switch i32 %16, label %17 [
    i32 3, label %MuxDeleteAllNamedData.exit.thread
    i32 5, label %MuxDeleteAllNamedData.exit.thread
    i32 6, label %MuxDeleteAllNamedData.exit.thread
  ]

17:                                               ; preds = %14
  %18 = tail call ptr @MuxGetChunkListFromId(ptr noundef nonnull %0, i32 noundef %16) #7
  %19 = load ptr, ptr %18, align 8, !tbaa !15
  %.not10.i.i = icmp eq ptr %19, null
  br i1 %.not10.i.i, label %MuxDeleteAllNamedData.exit.thread33, label %.lr.ph.i.i

.lr.ph.i.i:                                       ; preds = %17, %27
  %20 = phi ptr [ %28, %27 ], [ %19, %17 ]
  %.012.i.i = phi ptr [ %.1.i.i, %27 ], [ %18, %17 ]
  %21 = load i32, ptr %20, align 8, !tbaa !17
  %22 = icmp eq i32 %21, %15
  br i1 %22, label %23, label %25

23:                                               ; preds = %.lr.ph.i.i
  %24 = tail call ptr @ChunkDelete(ptr noundef nonnull %20) #7
  store ptr %24, ptr %.012.i.i, align 8, !tbaa !15
  br label %27

25:                                               ; preds = %.lr.ph.i.i
  %26 = getelementptr inbounds nuw i8, ptr %20, i64 24
  %.pre.i.i = load ptr, ptr %26, align 8, !tbaa !15
  br label %27

27:                                               ; preds = %25, %23
  %28 = phi ptr [ %24, %23 ], [ %.pre.i.i, %25 ]
  %.1.i.i = phi ptr [ %.012.i.i, %23 ], [ %26, %25 ]
  %.not.i.i = icmp eq ptr %28, null
  br i1 %.not.i.i, label %MuxDeleteAllNamedData.exit.thread33, label %.lr.ph.i.i, !llvm.loop !20

MuxDeleteAllNamedData.exit.thread33:              ; preds = %27, %17
  %29 = getelementptr inbounds nuw i8, ptr %0, i64 56
  store i32 %1, ptr %29, align 8, !tbaa !50
  %30 = getelementptr inbounds nuw i8, ptr %0, i64 60
  store i32 %2, ptr %30, align 4, !tbaa !51
  br label %MuxDeleteAllNamedData.exit.thread

MuxDeleteAllNamedData.exit.thread:                ; preds = %14, %14, %14, %11, %9, %5, %3, %MuxDeleteAllNamedData.exit.thread33
  %.0 = phi i32 [ 1, %MuxDeleteAllNamedData.exit.thread33 ], [ -1, %3 ], [ -1, %5 ], [ -1, %9 ], [ -1, %11 ], [ -1, %14 ], [ -1, %14 ], [ -1, %14 ]
  ret i32 %.0
}